target datalayout = "e-m:e-p270:32:32-p271:32:32-p272:64:64-i64:64-i128:128-f80:128-n8:16:32:64-S128"
target triple = "x86_64-pc-linux-gnu"

%class.ciField = type { %class.ciFlags, ptr, ptr, ptr, ptr, i32, i8, ptr, ptr, %class.ciConstant }
%class.ciFlags = type <{ i32, i8, i8, [2 x i8] }>
%class.ciConstant = type { i8, %union.anon }
%union.anon = type { i64 }
%class.ciMetadata = type { %class.ciBaseObject.base, ptr }
%class.ciBaseObject.base = type <{ ptr, i32 }>
%class.ciInstanceKlass = type { %class.ciKlass.base, ptr, ptr, i8, i8, i8, i32, i8, i8, i8, i8, i8, [3 x i8], %class.ciFlags, ptr, ptr, ptr, ptr, i32, ptr, ptr }
%class.ciKlass.base = type <{ %class.ciType.base, [7 x i8], ptr, i32 }>
%class.ciType.base = type <{ %class.ciMetadata, i8 }>
%class.ciType = type <{ %class.ciMetadata, i8, [7 x i8] }>

@FoldStableValues = external global i8, align 1

; Function Attrs: mustprogress nounwind uwtable
define linkonce_odr hidden noundef zeroext i1 @_ZNK10ciMetadata9is_loadedEv(ptr noundef nonnull align 8 dereferenceable(24) %0) #1 comdat align 2 {
  %2 = alloca ptr, align 8
  store ptr %0, ptr %2, align 8
  %3 = load ptr, ptr %2, align 8
  %4 = getelementptr inbounds %class.ciMetadata, ptr %3, i32 0, i32 1
  %5 = load ptr, ptr %4, align 8
  %6 = icmp ne ptr %5, null
  br i1 %6, label %12, label %7

7:                                                ; preds = %1
  %8 = load ptr, ptr %3, align 8
  %9 = getelementptr inbounds ptr, ptr %8, i64 4
  %10 = load ptr, ptr %9, align 8
  %11 = call noundef zeroext i1 %10(ptr noundef nonnull align 8 dereferenceable(24) %3)
  br label %12

12:                                               ; preds = %7, %1
  %13 = phi i1 [ true, %1 ], [ %11, %7 ]
  ret i1 %13
}

; Function Attrs: mustprogress nounwind uwtable
define linkonce_odr hidden noundef zeroext i1 @_ZNK7ciFlags9is_stableEv(ptr noundef nonnull align 4 dereferenceable(6) %0) #1 comdat align 2 {
  %2 = alloca ptr, align 8
  store ptr %0, ptr %2, align 8
  %3 = load ptr, ptr %2, align 8
  %4 = getelementptr inbounds %class.ciFlags, ptr %3, i32 0, i32 1
  %5 = load i8, ptr %4, align 4
  %6 = trunc i8 %5 to i1
  ret i1 %6
}

; Function Attrs: mustprogress nounwind uwtable
define linkonce_odr hidden i64 @_ZNK7ciField5flagsEv(ptr noundef nonnull align 8 dereferenceable(80) %0) #1 comdat align 2 {
  %2 = alloca %class.ciFlags, align 4
  %3 = alloca ptr, align 8
  store ptr %0, ptr %3, align 8
  %4 = load ptr, ptr %3, align 8
  %5 = getelementptr inbounds %class.ciField, ptr %4, i32 0, i32 0
  call void @llvm.memcpy.p0.p0.i64(ptr align 4 %2, ptr align 8 %5, i64 8, i1 false)
  %6 = load i64, ptr %2, align 4
  ret i64 %6
}

; Function Attrs: mustprogress nounwind uwtable
define linkonce_odr hidden void @_ZN15ciInstanceKlass16update_if_sharedEN13InstanceKlass10ClassStateE(ptr noundef nonnull align 8 dereferenceable(144) %0, i8 noundef zeroext %1) #1 comdat align 2 {
  %3 = alloca ptr, align 8
  %4 = alloca i8, align 1
  store ptr %0, ptr %3, align 8
  store i8 %1, ptr %4, align 1
  %5 = load ptr, ptr %3, align 8
  %6 = getelementptr inbounds %class.ciInstanceKlass, ptr %5, i32 0, i32 4
  %7 = load i8, ptr %6, align 1
  %8 = trunc i8 %7 to i1
  br i1 %8, label %9, label %20

9:                                                ; preds = %2
  %10 = getelementptr inbounds %class.ciInstanceKlass, ptr %5, i32 0, i32 3
  %11 = load i8, ptr %10, align 8
  %12 = zext i8 %11 to i32
  %13 = load i8, ptr %4, align 1
  %14 = zext i8 %13 to i32
  %15 = icmp ne i32 %12, %14
  br i1 %15, label %16, label %20

16:                                               ; preds = %9
  %17 = call noundef zeroext i1 @_ZNK10ciMetadata9is_loadedEv(ptr noundef nonnull align 8 dereferenceable(24) %5)
  br i1 %17, label %18, label %19

18:                                               ; preds = %16
  call void @_ZN15ciInstanceKlass25compute_shared_init_stateEv(ptr noundef nonnull align 8 dereferenceable(144) %5)
  br label %19

19:                                               ; preds = %18, %16
  br label %20

20:                                               ; preds = %19, %9, %2
  ret void
}

; Function Attrs: mustprogress nounwind uwtable
define linkonce_odr hidden noundef zeroext i1 @_ZNK7ciField9is_stableEv(ptr noundef nonnull align 8 dereferenceable(80) %0) #1 comdat align 2 {
  %2 = alloca ptr, align 8
  %3 = alloca %class.ciFlags, align 4
  store ptr %0, ptr %2, align 8
  %4 = load ptr, ptr %2, align 8
  %5 = call i64 @_ZNK7ciField5flagsEv(ptr noundef nonnull align 8 dereferenceable(80) %4)
  store i64 %5, ptr %3, align 4
  %6 = call noundef zeroext i1 @_ZNK7ciFlags9is_stableEv(ptr noundef nonnull align 4 dereferenceable(6) %3)
  ret i1 %6
}

; Function Attrs: mustprogress nounwind uwtable
define linkonce_odr hidden noundef i32 @_ZNK7ciField15offset_in_bytesEv(ptr noundef nonnull align 8 dereferenceable(80) %0) #1 comdat align 2 {
  %2 = alloca ptr, align 8
  store ptr %0, ptr %2, align 8
  %3 = load ptr, ptr %2, align 8
  %4 = getelementptr inbounds %class.ciField, ptr %3, i32 0, i32 5
  %5 = load i32, ptr %4, align 8
  ret i32 %5
}

; Function Attrs: mustprogress nounwind uwtable
define linkonce_odr hidden noundef zeroext i8 @_ZNK6ciType10basic_typeEv(ptr noundef nonnull align 8 dereferenceable(25) %0) #1 comdat align 2 {
  %2 = alloca ptr, align 8
  store ptr %0, ptr %2, align 8
  %3 = load ptr, ptr %2, align 8
  %4 = getelementptr inbounds %class.ciType, ptr %3, i32 0, i32 1
  %5 = load i8, ptr %4, align 8
  ret i8 %5
}

; Function Attrs: mustprogress nounwind uwtable
define linkonce_odr hidden noundef ptr @_ZN7ciField4typeEv(ptr noundef nonnull align 8 dereferenceable(80) %0) #1 comdat align 2 {
  %2 = alloca ptr, align 8
  store ptr %0, ptr %2, align 8
  %3 = load ptr, ptr %2, align 8
  %4 = getelementptr inbounds %class.ciField, ptr %3, i32 0, i32 4
  %5 = load ptr, ptr %4, align 8
  %6 = icmp eq ptr %5, null
  br i1 %6, label %7, label %9

7:                                                ; preds = %1
  %8 = call noundef ptr @_ZN7ciField12compute_typeEv(ptr noundef nonnull align 8 dereferenceable(80) %3)
  br label %12

9:                                                ; preds = %1
  %10 = getelementptr inbounds %class.ciField, ptr %3, i32 0, i32 4
  %11 = load ptr, ptr %10, align 8
  br label %12

12:                                               ; preds = %9, %7
  %13 = phi ptr [ %8, %7 ], [ %11, %9 ]
  ret ptr %13
}

; Function Attrs: mustprogress nounwind uwtable
define linkonce_odr hidden noundef zeroext i8 @_ZNK10ciConstant10basic_typeEv(ptr noundef nonnull align 8 dereferenceable(16) %0) #1 comdat align 2 {
  %2 = alloca ptr, align 8
  store ptr %0, ptr %2, align 8
  %3 = load ptr, ptr %2, align 8
  %4 = getelementptr inbounds %class.ciConstant, ptr %3, i32 0, i32 0
  %5 = load i8, ptr %4, align 8
  ret i8 %5
}

; Function Attrs: mustprogress nounwind uwtable
define linkonce_odr hidden void @_ZN10ciConstantC2Ev(ptr noundef nonnull align 8 dereferenceable(16) %0) unnamed_addr #1 comdat align 2 {
  %2 = alloca ptr, align 8
  store ptr %0, ptr %2, align 8
  %3 = load ptr, ptr %2, align 8
  %4 = getelementptr inbounds %class.ciConstant, ptr %3, i32 0, i32 0
  store i8 99, ptr %4, align 8
  %5 = getelementptr inbounds %class.ciConstant, ptr %3, i32 0, i32 1
  store i64 -1, ptr %5, align 8
  ret void
}

; Function Attrs: mustprogress nounwind uwtable
define linkonce_odr hidden noundef zeroext i1 @_ZN15ciInstanceKlass14is_initializedEv(ptr noundef nonnull align 8 dereferenceable(144) %0) #1 comdat align 2 {
  %2 = alloca ptr, align 8
  store ptr %0, ptr %2, align 8
  %3 = load ptr, ptr %2, align 8
  call void @_ZN15ciInstanceKlass16update_if_sharedEN13InstanceKlass10ClassStateE(ptr noundef nonnull align 8 dereferenceable(144) %3, i8 noundef zeroext 4)
  %4 = getelementptr inbounds %class.ciInstanceKlass, ptr %3, i32 0, i32 3
  %5 = load i8, ptr %4, align 8
  %6 = zext i8 %5 to i32
  %7 = icmp eq i32 %6, 4
  ret i1 %7
}

; Function Attrs: mustprogress nounwind uwtable
define hidden { i8, i64 } @_ZN7ciField14constant_valueEv(ptr noundef nonnull align 8 dereferenceable(80) %0) #1 align 2 {
  %2 = alloca %class.ciConstant, align 8
  %3 = alloca ptr, align 8
  %4 = alloca ptr, align 8
  %5 = alloca %class.ciConstant, align 8
  store ptr %0, ptr %3, align 8
  %6 = load ptr, ptr %3, align 8
  %7 = getelementptr inbounds %class.ciField, ptr %6, i32 0, i32 1
  %8 = load ptr, ptr %7, align 8
  %9 = call noundef zeroext i1 @_ZN15ciInstanceKlass14is_initializedEv(ptr noundef nonnull align 8 dereferenceable(144) %8)
  br i1 %9, label %11, label %10

10:                                               ; preds = %1
  call void @_ZN10ciConstantC2Ev(ptr noundef nonnull align 8 dereferenceable(16) %2)
  br label %44

11:                                               ; preds = %1
  %12 = getelementptr inbounds %class.ciField, ptr %6, i32 0, i32 9
  %13 = call noundef zeroext i8 @_ZNK10ciConstant10basic_typeEv(ptr noundef nonnull align 8 dereferenceable(16) %12)
  %14 = zext i8 %13 to i32
  %15 = icmp eq i32 %14, 99
  br i1 %15, label %16, label %33

16:                                               ; preds = %11
  %17 = getelementptr inbounds %class.ciField, ptr %6, i32 0, i32 1
  %18 = load ptr, ptr %17, align 8
  %19 = load ptr, ptr %18, align 8
  %20 = getelementptr inbounds ptr, ptr %19, i64 16
  %21 = load ptr, ptr %20, align 8
  %22 = call noundef ptr %21(ptr noundef nonnull align 8 dereferenceable(144) %18)
  store ptr %22, ptr %4, align 8
  %23 = load ptr, ptr %4, align 8
  %24 = call noundef ptr @_ZN7ciField4typeEv(ptr noundef nonnull align 8 dereferenceable(80) %6)
  %25 = call noundef zeroext i8 @_ZNK6ciType10basic_typeEv(ptr noundef nonnull align 8 dereferenceable(25) %24)
  %26 = call noundef i32 @_ZNK7ciField15offset_in_bytesEv(ptr noundef nonnull align 8 dereferenceable(80) %6)
  %27 = call { i8, i64 } @_ZN10ciInstance16field_value_implE9BasicTypei(ptr noundef nonnull align 8 dereferenceable(40) %23, i8 noundef zeroext %25, i32 noundef %26)
  %28 = getelementptr inbounds { i8, i64 }, ptr %5, i32 0, i32 0
  %29 = extractvalue { i8, i64 } %27, 0
  store i8 %29, ptr %28, align 8
  %30 = getelementptr inbounds { i8, i64 }, ptr %5, i32 0, i32 1
  %31 = extractvalue { i8, i64 } %27, 1
  store i64 %31, ptr %30, align 8
  %32 = getelementptr inbounds %class.ciField, ptr %6, i32 0, i32 9
  call void @llvm.memcpy.p0.p0.i64(ptr align 8 %32, ptr align 8 %5, i64 16, i1 false)
  br label %33

33:                                               ; preds = %16, %11
  %34 = load i8, ptr @FoldStableValues, align 1
  %35 = trunc i8 %34 to i1
  br i1 %35, label %36, label %42

36:                                               ; preds = %33
  %37 = call noundef zeroext i1 @_ZNK7ciField9is_stableEv(ptr noundef nonnull align 8 dereferenceable(80) %6)
  br i1 %37, label %38, label %42

38:                                               ; preds = %36
  %39 = getelementptr inbounds %class.ciField, ptr %6, i32 0, i32 9
  %40 = call noundef zeroext i1 @_ZNK10ciConstant15is_null_or_zeroEv(ptr noundef nonnull align 8 dereferenceable(16) %39)
  br i1 %40, label %41, label %42

41:                                               ; preds = %38
  call void @_ZN10ciConstantC2Ev(ptr noundef nonnull align 8 dereferenceable(16) %2)
  br label %44

42:                                               ; preds = %38, %36, %33
  %43 = getelementptr inbounds %class.ciField, ptr %6, i32 0, i32 9
  call void @llvm.memcpy.p0.p0.i64(ptr align 8 %2, ptr align 8 %43, i64 16, i1 false)
  br label %44

44:                                               ; preds = %42, %41, %10
  %45 = load { i8, i64 }, ptr %2, align 8
  ret { i8, i64 } %45
}