; Function Attrs: mustprogress nounwind uwtable
define hidden { i8, i64 } @_ZN7ciField14constant_valueEv(ptr noundef nonnull align 8 dereferenceable(80) %0) local_unnamed_addr #0 align 2 {
  %2 = getelementptr inbounds i8, ptr %0, i64 8
  %3 = load ptr, ptr %2, align 8
  %4 = getelementptr inbounds i8, ptr %3, i64 65
  %5 = load i8, ptr %4, align 1
  %6 = trunc i8 %5 to i1
  %7 = getelementptr inbounds i8, ptr %3, i64 64
  %8 = load i8, ptr %7, align 8
  %.not.i.i = icmp ne i8 %8, 4
  %or.cond.not.i.i = select i1 %6, i1 %.not.i.i, i1 false
  br i1 %or.cond.not.i.i, label %9, label %_ZN15ciInstanceKlass14is_initializedEv.exit

9:                                                ; preds = %1
  %10 = getelementptr inbounds i8, ptr %3, i64 16
  %11 = load ptr, ptr %10, align 8
  %.not.i.i.i = icmp eq ptr %11, null
  br i1 %.not.i.i.i, label %_ZNK10ciMetadata9is_loadedEv.exit.i.i, label %_ZNK10ciMetadata9is_loadedEv.exit.thread.i.i

_ZNK10ciMetadata9is_loadedEv.exit.i.i:            ; preds = %9
  %12 = load ptr, ptr %3, align 8
  %13 = getelementptr inbounds i8, ptr %12, i64 32
  %14 = load ptr, ptr %13, align 8
  %15 = tail call noundef zeroext i1 %14(ptr noundef nonnull align 8 dereferenceable(24) %3) #8
  br i1 %15, label %_ZNK10ciMetadata9is_loadedEv.exit.thread.i.i, label %_ZN15ciInstanceKlass14is_initializedEv.exitthread-pre-split

_ZNK10ciMetadata9is_loadedEv.exit.thread.i.i:     ; preds = %_ZNK10ciMetadata9is_loadedEv.exit.i.i, %9
  tail call void @_ZN15ciInstanceKlass25compute_shared_init_stateEv(ptr noundef nonnull align 8 dereferenceable(144) %3) #8
  br label %_ZN15ciInstanceKlass14is_initializedEv.exitthread-pre-split

_ZN15ciInstanceKlass14is_initializedEv.exitthread-pre-split: ; preds = %_ZNK10ciMetadata9is_loadedEv.exit.thread.i.i, %_ZNK10ciMetadata9is_loadedEv.exit.i.i
  %.pr = load i8, ptr %7, align 8
  br label %_ZN15ciInstanceKlass14is_initializedEv.exit

_ZN15ciInstanceKlass14is_initializedEv.exit:      ; preds = %_ZN15ciInstanceKlass14is_initializedEv.exitthread-pre-split, %1
  %16 = phi i8 [ %.pr, %_ZN15ciInstanceKlass14is_initializedEv.exitthread-pre-split ], [ %8, %1 ]
  %17 = icmp eq i8 %16, 4
  br i1 %17, label %18, label %49

18:                                               ; preds = %_ZN15ciInstanceKlass14is_initializedEv.exit
  %19 = getelementptr inbounds i8, ptr %0, i64 64
  %20 = load i8, ptr %19, align 8
  %21 = icmp eq i8 %20, 99
  br i1 %21, label %22, label %41

22:                                               ; preds = %18
  %23 = load ptr, ptr %2, align 8
  %24 = load ptr, ptr %23, align 8
  %25 = getelementptr inbounds i8, ptr %24, i64 128
  %26 = load ptr, ptr %25, align 8
  %27 = tail call noundef ptr %26(ptr noundef nonnull align 8 dereferenceable(144) %23) #8
  %28 = getelementptr inbounds i8, ptr %0, i64 32
  %29 = load ptr, ptr %28, align 8
  %30 = icmp eq ptr %29, null
  br i1 %30, label %31, label %_ZN7ciField4typeEv.exit

31:                                               ; preds = %22
  %32 = tail call noundef ptr @_ZN7ciField12compute_typeEv(ptr noundef nonnull align 8 dereferenceable(80) %0)
  br label %_ZN7ciField4typeEv.exit

_ZN7ciField4typeEv.exit:                          ; preds = %22, %31
  %33 = phi ptr [ %32, %31 ], [ %29, %22 ]
  %34 = getelementptr inbounds i8, ptr %33, i64 24
  %35 = load i8, ptr %34, align 8
  %36 = getelementptr inbounds i8, ptr %0, i64 40
  %37 = load i32, ptr %36, align 8
  %38 = tail call { i8, i64 } @_ZN10ciInstance16field_value_implE9BasicTypei(ptr noundef nonnull align 8 dereferenceable(40) %27, i8 noundef zeroext %35, i32 noundef %37) #8
  %39 = extractvalue { i8, i64 } %38, 0
  %40 = extractvalue { i8, i64 } %38, 1
  store i8 %39, ptr %19, align 8
  %.sroa.21.0..sroa_idx = getelementptr inbounds i8, ptr %0, i64 72
  store i64 %40, ptr %.sroa.21.0..sroa_idx, align 8
  br label %41

41:                                               ; preds = %_ZN7ciField4typeEv.exit, %18
  %.sroa.0.0.copyload5 = phi i8 [ %39, %_ZN7ciField4typeEv.exit ], [ %20, %18 ]
  %42 = load i8, ptr @FoldStableValues, align 1
  %43 = trunc i8 %42 to i1
  br i1 %43, label %44, label %48

44:                                               ; preds = %41
  %.sroa.0.0.copyload.i.i = load i64, ptr %0, align 8
  %45 = and i64 %.sroa.0.0.copyload.i.i, 4294967296
  %.not = icmp eq i64 %45, 0
  br i1 %.not, label %48, label %46

46:                                               ; preds = %44
  %47 = tail call noundef zeroext i1 @_ZNK10ciConstant15is_null_or_zeroEv(ptr noundef nonnull align 8 dereferenceable(16) %19) #8
  br i1 %47, label %49, label %._crit_edge

._crit_edge:                                      ; preds = %46
  %.sroa.0.0.copyload.pre = load i8, ptr %19, align 8
  br label %48

48:                                               ; preds = %._crit_edge, %44, %41
  %.sroa.0.0.copyload = phi i8 [ %.sroa.0.0.copyload.pre, %._crit_edge ], [ %.sroa.0.0.copyload5, %44 ], [ %.sroa.0.0.copyload5, %41 ]
  %.sroa.43.0..sroa_idx = getelementptr inbounds i8, ptr %0, i64 72
  %.sroa.43.0.copyload = load i64, ptr %.sroa.43.0..sroa_idx, align 8
  br label %49

49:                                               ; preds = %46, %_ZN15ciInstanceKlass14is_initializedEv.exit, %48
  %.sroa.43.0 = phi i64 [ %.sroa.43.0.copyload, %48 ], [ -1, %_ZN15ciInstanceKlass14is_initializedEv.exit ], [ -1, %46 ]
  %.sroa.0.0 = phi i8 [ %.sroa.0.0.copyload, %48 ], [ 99, %_ZN15ciInstanceKlass14is_initializedEv.exit ], [ 99, %46 ]
  %.fca.0.insert = insertvalue { i8, i64 } poison, i8 %.sroa.0.0, 0
  %.fca.1.insert = insertvalue { i8, i64 } %.fca.0.insert, i64 %.sroa.43.0, 1
  ret { i8, i64 } %.fca.1.insert
}